target datalayout = "e-m:e-p270:32:32-p271:32:32-p272:64:64-i64:64-i128:128-f80:128-n8:16:32:64-S128"
target triple = "x86_64-pc-linux-gnu"

@.str.39 = private unnamed_addr constant [26 x i8] c"android-bluetooth-hcidump\00", align 1
@.str.40 = private unnamed_addr constant [34 x i8] c"android-bluetooth-external-parser\00", align 1
@.str.41 = private unnamed_addr constant [30 x i8] c"android-bluetooth-btsnoop-net\00", align 1
@.str.42 = private unnamed_addr constant [16 x i8] c"android-tcpdump\00", align 1
@.str.80 = private unnamed_addr constant [20 x i8] c"android-logcat-main\00", align 1
@.str.82 = private unnamed_addr constant [22 x i8] c"android-logcat-system\00", align 1
@.str.84 = private unnamed_addr constant [21 x i8] c"android-logcat-radio\00", align 1
@.str.86 = private unnamed_addr constant [22 x i8] c"android-logcat-events\00", align 1
@.str.88 = private unnamed_addr constant [25 x i8] c"android-logcat-text-main\00", align 1
@.str.89 = private unnamed_addr constant [27 x i8] c"android-logcat-text-system\00", align 1
@.str.90 = private unnamed_addr constant [26 x i8] c"android-logcat-text-radio\00", align 1
@.str.91 = private unnamed_addr constant [27 x i8] c"android-logcat-text-events\00", align 1
@.str.92 = private unnamed_addr constant [26 x i8] c"android-logcat-text-crash\00", align 1
@.str.135 = private unnamed_addr constant [6 x i8] c"%s-%s\00", align 1
@.str.136 = private unnamed_addr constant [9 x i8] c"%s %s %s\00", align 1
@.str.137 = private unnamed_addr constant [12 x i8] c"BluetoothH4\00", align 1
@.str.138 = private unnamed_addr constant [54 x i8] c"Bluetooth HCI UART transport layer plus pseudo-header\00", align 1
@.str.139 = private unnamed_addr constant [10 x i8] c"Upper PDU\00", align 1
@.str.140 = private unnamed_addr constant [9 x i8] c"Ethernet\00", align 1

; Function Attrs: null_pointer_is_valid sspstrong uwtable
define internal zeroext i1 @is_logcat_text_interface(ptr noundef %0) #0 {
  %2 = alloca ptr, align 8
  store ptr %0, ptr %2, align 8
  %3 = load ptr, ptr %2, align 8
  %4 = call i32 @is_specified_interface(ptr noundef %3, ptr noundef @.str.88)
  %5 = icmp ne i32 %4, 0
  br i1 %5, label %22, label %6

6:                                                ; preds = %1
  %7 = load ptr, ptr %2, align 8
  %8 = call i32 @is_specified_interface(ptr noundef %7, ptr noundef @.str.89)
  %9 = icmp ne i32 %8, 0
  br i1 %9, label %22, label %10

10:                                               ; preds = %6
  %11 = load ptr, ptr %2, align 8
  %12 = call i32 @is_specified_interface(ptr noundef %11, ptr noundef @.str.90)
  %13 = icmp ne i32 %12, 0
  br i1 %13, label %22, label %14

14:                                               ; preds = %10
  %15 = load ptr, ptr %2, align 8
  %16 = call i32 @is_specified_interface(ptr noundef %15, ptr noundef @.str.91)
  %17 = icmp ne i32 %16, 0
  br i1 %17, label %22, label %18

18:                                               ; preds = %14
  %19 = load ptr, ptr %2, align 8
  %20 = call i32 @is_specified_interface(ptr noundef %19, ptr noundef @.str.92)
  %21 = icmp ne i32 %20, 0
  br label %22

22:                                               ; preds = %18, %14, %10, %6, %1
  %23 = phi i1 [ true, %14 ], [ true, %10 ], [ true, %6 ], [ true, %1 ], [ %21, %18 ]
  ret i1 %23
}

; Function Attrs: null_pointer_is_valid sspstrong uwtable
define internal zeroext i1 @is_logcat_interface(ptr noundef %0) #0 {
  %2 = alloca ptr, align 8
  store ptr %0, ptr %2, align 8
  %3 = load ptr, ptr %2, align 8
  %4 = call i32 @is_specified_interface(ptr noundef %3, ptr noundef @.str.80)
  %5 = icmp ne i32 %4, 0
  br i1 %5, label %18, label %6

6:                                                ; preds = %1
  %7 = load ptr, ptr %2, align 8
  %8 = call i32 @is_specified_interface(ptr noundef %7, ptr noundef @.str.82)
  %9 = icmp ne i32 %8, 0
  br i1 %9, label %18, label %10

10:                                               ; preds = %6
  %11 = load ptr, ptr %2, align 8
  %12 = call i32 @is_specified_interface(ptr noundef %11, ptr noundef @.str.84)
  %13 = icmp ne i32 %12, 0
  br i1 %13, label %18, label %14

14:                                               ; preds = %10
  %15 = load ptr, ptr %2, align 8
  %16 = call i32 @is_specified_interface(ptr noundef %15, ptr noundef @.str.86)
  %17 = icmp ne i32 %16, 0
  br label %18

18:                                               ; preds = %14, %10, %6, %1
  %19 = phi i1 [ true, %10 ], [ true, %6 ], [ true, %1 ], [ %17, %14 ]
  ret i1 %19
}

; Function Attrs: null_pointer_is_valid sspstrong uwtable
define internal void @new_interface(ptr noundef %0, ptr noundef %1, ptr noundef %2, ptr noundef %3, ptr noundef %4) #0 {
  %6 = alloca ptr, align 8
  %7 = alloca ptr, align 8
  %8 = alloca ptr, align 8
  %9 = alloca ptr, align 8
  %10 = alloca ptr, align 8
  %11 = alloca ptr, align 8
  %12 = alloca ptr, align 8
  store ptr %0, ptr %6, align 8
  store ptr %1, ptr %7, align 8
  store ptr %2, ptr %8, align 8
  store ptr %3, ptr %9, align 8
  store ptr %4, ptr %10, align 8
  call void @llvm.lifetime.start.p0(i64 8, ptr %11) #17
  %13 = load ptr, ptr %7, align 8
  %14 = load ptr, ptr %9, align 8
  %15 = call noalias ptr (ptr, ptr, ...) @wmem_strdup_printf(ptr noundef null, ptr noundef @.str.135, ptr noundef %13, ptr noundef %14)
  store ptr %15, ptr %11, align 8
  call void @llvm.lifetime.start.p0(i64 8, ptr %12) #17
  %16 = load ptr, ptr %10, align 8
  %17 = load ptr, ptr %8, align 8
  %18 = load ptr, ptr %9, align 8
  %19 = call noalias ptr (ptr, ptr, ...) @wmem_strdup_printf(ptr noundef null, ptr noundef @.str.136, ptr noundef %16, ptr noundef %17, ptr noundef %18)
  store ptr %19, ptr %12, align 8
  %20 = load ptr, ptr %11, align 8
  %21 = call i32 @is_specified_interface(ptr noundef %20, ptr noundef @.str.39)
  %22 = icmp ne i32 %21, 0
  br i1 %22, label %31, label %23

23:                                               ; preds = %5
  %24 = load ptr, ptr %11, align 8
  %25 = call i32 @is_specified_interface(ptr noundef %24, ptr noundef @.str.40)
  %26 = icmp ne i32 %25, 0
  br i1 %26, label %31, label %27

27:                                               ; preds = %23
  %28 = load ptr, ptr %11, align 8
  %29 = call i32 @is_specified_interface(ptr noundef %28, ptr noundef @.str.41)
  %30 = icmp ne i32 %29, 0
  br i1 %30, label %31, label %35

31:                                               ; preds = %27, %23, %5
  %32 = load ptr, ptr %6, align 8
  %33 = load ptr, ptr %11, align 8
  %34 = load ptr, ptr %12, align 8
  call void @extcap_base_register_interface_ext(ptr noundef %32, ptr noundef %33, ptr noundef %34, i16 noundef zeroext 99, ptr noundef @.str.137, ptr noundef @.str.138)
  br label %55

35:                                               ; preds = %27
  %36 = load ptr, ptr %11, align 8
  %37 = call zeroext i1 @is_logcat_interface(ptr noundef %36)
  br i1 %37, label %41, label %38

38:                                               ; preds = %35
  %39 = load ptr, ptr %11, align 8
  %40 = call zeroext i1 @is_logcat_text_interface(ptr noundef %39)
  br i1 %40, label %41, label %45

41:                                               ; preds = %38, %35
  %42 = load ptr, ptr %6, align 8
  %43 = load ptr, ptr %11, align 8
  %44 = load ptr, ptr %12, align 8
  call void @extcap_base_register_interface(ptr noundef %42, ptr noundef %43, ptr noundef %44, i16 noundef zeroext 252, ptr noundef @.str.139)
  br label %54

45:                                               ; preds = %38
  %46 = load ptr, ptr %11, align 8
  %47 = call i32 @is_specified_interface(ptr noundef %46, ptr noundef @.str.42)
  %48 = icmp ne i32 %47, 0
  br i1 %48, label %49, label %53

49:                                               ; preds = %45
  %50 = load ptr, ptr %6, align 8
  %51 = load ptr, ptr %11, align 8
  %52 = load ptr, ptr %12, align 8
  call void @extcap_base_register_interface(ptr noundef %50, ptr noundef %51, ptr noundef %52, i16 noundef zeroext 1, ptr noundef @.str.140)
  br label %53

53:                                               ; preds = %49, %45
  br label %54

54:                                               ; preds = %53, %41
  br label %55

55:                                               ; preds = %54, %31
  %56 = load ptr, ptr %11, align 8
  call void @g_free(ptr noundef %56)
  %57 = load ptr, ptr %12, align 8
  call void @g_free(ptr noundef %57)
  call void @llvm.lifetime.end.p0(i64 8, ptr %12) #17
  call void @llvm.lifetime.end.p0(i64 8, ptr %11) #17
  ret void
}