; Function Attrs: null_pointer_is_valid sspstrong uwtable
define internal fastcc void @new_interface(ptr noundef %0, ptr noundef %1, ptr noundef %2, ptr noundef %3, ptr noundef %4) unnamed_addr #0 {
  %6 = tail call noalias ptr (ptr, ptr, ...) @wmem_strdup_printf(ptr noundef null, ptr noundef nonnull @.str.135, ptr noundef %1, ptr noundef %3)
  %7 = tail call noalias ptr (ptr, ptr, ...) @wmem_strdup_printf(ptr noundef null, ptr noundef nonnull @.str.136, ptr noundef %4, ptr noundef %2, ptr noundef %3)
  %8 = tail call i32 @strncmp(ptr noundef readonly %6, ptr noundef nonnull dereferenceable(26) @.str.39, i64 noundef 25) #22
  %.not.i.not = icmp eq i32 %8, 0
  br i1 %.not.i.not, label %13, label %9

9:                                                ; preds = %5
  %10 = tail call i32 @strncmp(ptr noundef readonly %6, ptr noundef nonnull dereferenceable(34) @.str.40, i64 noundef 33) #22
  %.not.i25.not = icmp eq i32 %10, 0
  br i1 %.not.i25.not, label %13, label %11

11:                                               ; preds = %9
  %12 = tail call i32 @strncmp(ptr noundef readonly %6, ptr noundef nonnull dereferenceable(30) @.str.41, i64 noundef 29) #22
  %.not.i26.not = icmp eq i32 %12, 0
  br i1 %.not.i26.not, label %13, label %14

13:                                               ; preds = %11, %9, %5
  tail call void @extcap_base_register_interface_ext(ptr noundef %0, ptr noundef %6, ptr noundef %7, i16 noundef zeroext 99, ptr noundef nonnull @.str.137, ptr noundef nonnull @.str.138)
  br label %33

14:                                               ; preds = %11
  %15 = tail call i32 @strncmp(ptr noundef readonly %6, ptr noundef nonnull dereferenceable(20) @.str.80, i64 noundef 19) #22
  %.not.i.not.i = icmp eq i32 %15, 0
  br i1 %.not.i.not.i, label %is_logcat_interface.exit.thread, label %16

16:                                               ; preds = %14
  %17 = tail call i32 @strncmp(ptr noundef readonly %6, ptr noundef nonnull dereferenceable(22) @.str.82, i64 noundef 21) #22
  %.not.i6.not.i = icmp eq i32 %17, 0
  br i1 %.not.i6.not.i, label %is_logcat_interface.exit.thread, label %18

18:                                               ; preds = %16
  %19 = tail call i32 @strncmp(ptr noundef readonly %6, ptr noundef nonnull dereferenceable(21) @.str.84, i64 noundef 20) #22
  %.not.i7.not.i = icmp eq i32 %19, 0
  br i1 %.not.i7.not.i, label %is_logcat_interface.exit.thread, label %is_logcat_interface.exit

is_logcat_interface.exit:                         ; preds = %18
  %20 = tail call i32 @strncmp(ptr noundef readonly %6, ptr noundef nonnull dereferenceable(22) @.str.86, i64 noundef 21) #22
  %.not.i8.i = icmp eq i32 %20, 0
  br i1 %.not.i8.i, label %is_logcat_interface.exit.thread, label %21

21:                                               ; preds = %is_logcat_interface.exit
  %22 = tail call i32 @strncmp(ptr noundef readonly %6, ptr noundef nonnull dereferenceable(25) @.str.88, i64 noundef 24) #22
  %.not.i.not.i27 = icmp eq i32 %22, 0
  br i1 %.not.i.not.i27, label %is_logcat_interface.exit.thread, label %23

23:                                               ; preds = %21
  %24 = tail call i32 @strncmp(ptr noundef readonly %6, ptr noundef nonnull dereferenceable(27) @.str.89, i64 noundef 26) #22
  %.not.i8.not.i = icmp eq i32 %24, 0
  br i1 %.not.i8.not.i, label %is_logcat_interface.exit.thread, label %25

25:                                               ; preds = %23
  %26 = tail call i32 @strncmp(ptr noundef readonly %6, ptr noundef nonnull dereferenceable(26) @.str.90, i64 noundef 25) #22
  %.not.i9.not.i = icmp eq i32 %26, 0
  br i1 %.not.i9.not.i, label %is_logcat_interface.exit.thread, label %27

27:                                               ; preds = %25
  %28 = tail call i32 @strncmp(ptr noundef readonly %6, ptr noundef nonnull dereferenceable(27) @.str.91, i64 noundef 26) #22
  %.not.i10.not.i = icmp eq i32 %28, 0
  br i1 %.not.i10.not.i, label %is_logcat_interface.exit.thread, label %is_logcat_text_interface.exit

is_logcat_text_interface.exit:                    ; preds = %27
  %29 = tail call fastcc i32 @is_specified_interface(ptr noundef readonly %6, ptr noundef nonnull @.str.92)
  %.not = icmp eq i32 %29, 0
  br i1 %.not, label %30, label %is_logcat_interface.exit.thread

is_logcat_interface.exit.thread:                  ; preds = %21, %23, %25, %27, %14, %16, %18, %is_logcat_text_interface.exit, %is_logcat_interface.exit
  tail call void @extcap_base_register_interface(ptr noundef %0, ptr noundef %6, ptr noundef %7, i16 noundef zeroext 252, ptr noundef nonnull @.str.139)
  br label %33

30:                                               ; preds = %is_logcat_text_interface.exit
  %31 = tail call fastcc i32 @is_specified_interface(ptr noundef %6, ptr noundef nonnull @.str.42)
  %.not24 = icmp eq i32 %31, 0
  br i1 %.not24, label %33, label %32

32:                                               ; preds = %30
  tail call void @extcap_base_register_interface(ptr noundef %0, ptr noundef %6, ptr noundef %7, i16 noundef zeroext 1, ptr noundef nonnull @.str.140)
  br label %33

33:                                               ; preds = %is_logcat_interface.exit.thread, %32, %30, %13
  tail call void @g_free(ptr noundef %6)
  tail call void @g_free(ptr noundef %7)
  ret void
}